; Function Attrs: mustprogress uwtable
define void @_ZN7mitsuba6Logger13set_formatterEPNS_9FormatterE(ptr nocapture noundef nonnull readonly align 8 dereferenceable(24) %0, ptr noundef %1) local_unnamed_addr #0 align 2 personality ptr @__gxx_personality_v0 {
  %3 = getelementptr inbounds i8, ptr %0, i64 16
  %4 = load ptr, ptr %3, align 8
  tail call void @_ZNSt3__15mutex4lockEv(ptr noundef nonnull align 8 dereferenceable(40) %4)
  %5 = load ptr, ptr %3, align 8
  %6 = getelementptr inbounds i8, ptr %5, i64 72
  %7 = load ptr, ptr %6, align 8
  %.not.i = icmp eq ptr %7, %1
  br i1 %.not.i, label %_ZN7mitsuba3refINS_9FormatterEEaSIS1_EERS2_PS1_.exit, label %8

8:                                                ; preds = %2
  %.not6.i = icmp eq ptr %1, null
  br i1 %.not6.i, label %12, label %9

9:                                                ; preds = %8
  %10 = getelementptr inbounds i8, ptr %1, i64 8
  %11 = atomicrmw add ptr %10, i32 1 seq_cst, align 4
  %.pr.i = load ptr, ptr %6, align 8
  br label %12

12:                                               ; preds = %9, %8
  %13 = phi ptr [ %.pr.i, %9 ], [ %7, %8 ]
  %.not7.i = icmp eq ptr %13, null
  br i1 %.not7.i, label %15, label %14

14:                                               ; preds = %12
  tail call void @_ZNK7mitsuba6Object7dec_refEb(ptr noundef nonnull align 8 dereferenceable(12) %13, i1 noundef zeroext true) #21
  br label %15

15:                                               ; preds = %14, %12
  store ptr %1, ptr %6, align 8
  br label %_ZN7mitsuba3refINS_9FormatterEEaSIS1_EERS2_PS1_.exit

_ZN7mitsuba3refINS_9FormatterEEaSIS1_EERS2_PS1_.exit: ; preds = %2, %15
  tail call void @_ZNSt3__15mutex6unlockEv(ptr noundef nonnull align 8 dereferenceable(40) %4) #21
  ret void
}